Certificate:
    Data:
        Version: 3 (0x2)
        Serial Number: 15 (0xf)
        Signature Algorithm: sha1WithRSAEncryption
        Issuer: C=US, O=Google, OU=Enterprise, CN=Enterprise Subordinate CA
        Validity
            Not Before: Oct 31 20:22:15 2020 GMT
            Not After : Oct 31 20:22:15 2022 GMT
        Subject: C=US, O=Google, OU=Enterprise, CN=server.esodemoapp2.com
        Subject Public Key Info:
            Public Key Algorithm: rsaEncryption
                RSA Public-Key: (2048 bit)
                Modulus:
                    00:c6:53:85:b5:a4:52:f0:fc:c3:1c:cf:fe:ff:ed:
                    f7:5f:19:d1:f8:43:62:04:ab:a3:0e:f9:1b:59:08:
                    6d:47:f9:67:7a:86:fa:5d:00:c8:b6:9d:22:8d:d2:
                    a8:dd:c4:35:06:1f:db:e3:b5:54:ff:47:93:dd:2d:
                    ca:f0:92:88:6a:a3:5c:92:c2:2d:77:6b:c0:b2:ea:
                    1e:8a:85:0f:1c:26:dd:b4:34:fc:09:4e:22:99:a2:
                    95:2f:be:05:d1:d4:7b:0d:07:7e:a6:6a:f6:52:4e:
                    14:f0:05:dc:4b:4b:2c:f6:84:d1:e4:5b:03:61:e0:
                    b8:77:b8:ab:fe:e3:20:8a:fd:f7:db:d8:b9:a7:c2:
                    b5:eb:6b:cc:80:48:f2:47:bd:f9:2d:95:bc:f3:f0:
                    fa:78:b6:29:9b:e6:4d:bd:7e:0e:72:2a:ab:b4:17:
                    fe:df:76:63:d4:56:d5:48:1e:5e:ab:dc:fc:b6:d8:
                    c2:72:1f:4b:20:a9:79:ad:48:bc:72:0b:ba:9f:9e:
                    43:f4:76:69:e2:20:cc:5a:c3:6e:e4:b8:50:ba:f1:
                    74:9a:cc:bb:85:17:5c:f2:4c:6f:0e:f1:48:e0:1d:
                    84:9a:17:fa:e9:32:d3:c6:d1:de:96:d4:6e:de:b0:
                    37:0c:23:b8:32:cd:2c:12:1d:95:86:4a:ea:c7:8b:
                    41:1b
                Exponent: 65537 (0x10001)
        X509v3 extensions:
            X509v3 Key Usage: critical
                Digital Signature
            X509v3 Basic Constraints: 
                CA:FALSE
            X509v3 Extended Key Usage: 
                TLS Web Server Authentication
            X509v3 Subject Key Identifier: 
                3F:64:15:AA:6D:E2:FB:B2:99:F9:C6:44:BD:6B:05:60:67:92:F5:21
            X509v3 Authority Key Identifier: 
                keyid:BF:E1:1C:F0:22:48:8F:FC:3B:CF:5D:D9:ED:AE:88:70:21:DF:DD:86

            Authority Information Access: 
                CA Issuers - URI:http://pki.esodemoapp2.com/ca/tls-ca.cer

            X509v3 CRL Distribution Points: 

                Full Name:
                  URI:http://pki.esodemoapp2.com/ca/tls-ca.crl

            X509v3 Subject Alternative Name: 
                DNS:server.esodemoapp2.com
    Signature Algorithm: sha1WithRSAEncryption
         0a:d8:a3:0e:8c:e5:d5:f3:cb:2a:2f:42:96:e3:5b:94:e0:2d:
         72:1d:dd:33:c2:c6:01:d4:6d:dd:ab:92:38:ea:bf:98:3b:8b:
         22:e7:2f:35:0d:c4:66:02:09:c3:0c:51:7f:7d:ce:c4:ed:18:
         0b:09:83:58:01:fd:96:c5:49:ac:a9:24:20:a3:6e:fe:6d:6b:
         3d:10:69:4f:bf:ce:a9:9d:4c:4e:93:83:36:3f:9e:df:43:35:
         36:f2:c0:3d:0f:ce:ad:8a:bd:c6:e4:18:74:21:14:1c:81:0e:
         c4:ea:dc:b5:d2:73:a2:36:e4:18:90:91:52:bb:0c:b0:0e:03:
         6c:ec:5b:6f:85:df:71:6c:56:32:d8:e6:6a:02:3b:01:93:b6:
         c5:6b:4e:85:56:f5:55:50:56:81:10:f9:c7:07:7d:e1:3b:9e:
         a2:4b:cd:d5:b0:ee:0c:d7:c4:92:66:51:4a:9d:08:c9:86:08:
         fc:98:b1:44:65:cb:45:bc:a8:ac:b9:b7:30:8b:99:81:b9:2a:
         86:65:50:30:f0:c6:bb:0c:38:e5:a2:c1:96:21:6a:a2:19:5f:
         df:ea:e4:ba:da:e9:3a:fd:58:e8:af:e4:30:8d:3c:61:aa:f4:
         c8:a0:3c:17:21:4e:20:9b:96:f7:c0:c9:4c:0a:fe:c8:99:31:
         ef:e6:25:82
-----BEGIN CERTIFICATE-----
MIIEQDCCAyigAwIBAgIBDzANBgkqhkiG9w0BAQUFADBXMQswCQYDVQQGEwJVUzEP
MA0GA1UECgwGR29vZ2xlMRMwEQYDVQQLDApFbnRlcnByaXNlMSIwIAYDVQQDDBlF
bnRlcnByaXNlIFN1Ym9yZGluYXRlIENBMB4XDTIwMTAzMTIwMjIxNVoXDTIyMTAz
MTIwMjIxNVowVDELMAkGA1UEBhMCVVMxDzANBgNVBAoMBkdvb2dsZTETMBEGA1UE
CwwKRW50ZXJwcmlzZTEfMB0GA1UEAwwWc2VydmVyLmVzb2RlbW9hcHAyLmNvbTCC
ASIwDQYJKoZIhvcNAQEBBQADggEPADCCAQoCggEBAMZThbWkUvD8wxzP/v/t918Z
0fhDYgSrow75G1kIbUf5Z3qG+l0AyLadIo3SqN3ENQYf2+O1VP9Hk90tyvCSiGqj
XJLCLXdrwLLqHoqFDxwm3bQ0/AlOIpmilS++BdHUew0HfqZq9lJOFPAF3EtLLPaE
0eRbA2HguHe4q/7jIIr999vYuafCtetrzIBI8ke9+S2VvPPw+ni2KZvmTb1+DnIq
q7QX/t92Y9RW1UgeXqvc/LbYwnIfSyCpea1IvHILup+eQ/R2aeIgzFrDbuS4ULrx
dJrMu4UXXPJMbw7xSOAdhJoX+uky08bR3pbUbt6wNwwjuDLNLBIdlYZK6seLQRsC
AwEAAaOCARgwggEUMA4GA1UdDwEB/wQEAwIHgDAJBgNVHRMEAjAAMBMGA1UdJQQM
MAoGCCsGAQUFBwMBMB0GA1UdDgQWBBQ/ZBWqbeL7spn5xkS9awVgZ5L1ITAfBgNV
HSMEGDAWgBS/4RzwIkiP/DvPXdntrohwId/dhjBEBggrBgEFBQcBAQQ4MDYwNAYI
KwYBBQUHMAKGKGh0dHA6Ly9wa2kuZXNvZGVtb2FwcDIuY29tL2NhL3Rscy1jYS5j
ZXIwOQYDVR0fBDIwMDAuoCygKoYoaHR0cDovL3BraS5lc29kZW1vYXBwMi5jb20v
Y2EvdGxzLWNhLmNybDAhBgNVHREEGjAYghZzZXJ2ZXIuZXNvZGVtb2FwcDIuY29t
MA0GCSqGSIb3DQEBBQUAA4IBAQAK2KMOjOXV88sqL0KW41uU4C1yHd0zwsYB1G3d
q5I46r+YO4si5y81DcRmAgnDDFF/fc7E7RgLCYNYAf2WxUmsqSQgo27+bWs9EGlP
v86pnUxOk4M2P57fQzU28sA9D86tir3G5Bh0IRQcgQ7E6ty10nOiNuQYkJFSuwyw
DgNs7Ftvhd9xbFYy2OZqAjsBk7bFa06FVvVVUFaBEPnHB33hO56iS83VsO4M18SS
ZlFKnQjJhgj8mLFEZctFvKisubcwi5mBuSqGZVAw8Ma7DDjlosGWIWqiGV/f6uS6
2uk6/Vjor+QwjTxhqvTIoDwXIU4gm5b3wMlMCv7ImTHv5iWC
-----END CERTIFICATE-----
